target datalayout = "e-m:e-p270:32:32-p271:32:32-p272:64:64-i64:64-i128:128-f80:128-n8:16:32:64-S128"
target triple = "x86_64-unknown-linux-gnu"

%"class.std::chrono::duration.34" = type { i64 }
%"class.google::LogMessageVoidify" = type { i8 }
%"class.google::LogMessageFatal" = type { %"class.google::LogMessage" }
%"class.google::LogMessage" = type { ptr, ptr, %"struct.google::LogMessageTime" }
%"struct.google::LogMessageTime" = type { %struct.tm, i64, i32, i64 }
%struct.tm = type { i32, i32, i32, i32, i32, i32, i32, i32, i32, i64, ptr }
%"class.proxygen::RateLimitFilter" = type { %"class.proxygen::PassThroughHTTPCodecFilter", %"class.folly::HHWheelTimerBase<std::chrono::duration<long, std::ratio<1, 1000>>>::Callback", i32, i32, %"class.std::chrono::duration.34", ptr, ptr }
%"class.proxygen::PassThroughHTTPCodecFilter" = type { %"class.proxygen::GenericFilter" }
%"class.proxygen::GenericFilter" = type { %"class.proxygen::HTTPCodec", %"class.proxygen::HTTPCodec::Callback", i8, i8, ptr, ptr, ptr, ptr, ptr, ptr }
%"class.proxygen::HTTPCodec" = type { ptr }
%"class.proxygen::HTTPCodec::Callback" = type { ptr }
%"class.folly::HHWheelTimerBase<std::chrono::duration<long, std::ratio<1, 1000>>>::Callback" = type { ptr, %"class.boost::intrusive::list_base_hook", ptr, %"class.std::chrono::time_point", i32, %"class.std::shared_ptr" }
%"class.boost::intrusive::list_base_hook" = type { %"class.boost::intrusive::generic_hook" }
%"class.boost::intrusive::generic_hook" = type { %"struct.boost::intrusive::node_holder" }
%"struct.boost::intrusive::node_holder" = type { %"struct.boost::intrusive::list_node" }
%"struct.boost::intrusive::list_node" = type { ptr, ptr }
%"class.std::chrono::time_point" = type { %"class.std::chrono::duration" }
%"class.std::chrono::duration" = type { i64 }
%"class.std::shared_ptr" = type { %"class.std::__shared_ptr" }
%"class.std::__shared_ptr" = type { ptr, %"class.std::__shared_count" }
%"class.std::__shared_count" = type { ptr }

@.str.5 = private unnamed_addr constant [139 x i8] c"generated/home/dtcxzyw/WorkSpace/Projects/compilers/llvm-opt-benchmark/bench/proxygen/proxygen/proxygen/lib/http/codec/RateLimitFilter.cpp\00", align 1
@.str.6 = private unnamed_addr constant [22 x i8] c"Check failed: timer_ \00", align 1

; Function Attrs: mustprogress nounwind uwtable
define linkonce_odr void @_ZN6google17LogMessageVoidifyanERSo(ptr noundef nonnull align 1 dereferenceable(1) %this, ptr noundef nonnull align 8 dereferenceable(8) %0) #4 comdat align 2 {
entry:
  %this.addr = alloca ptr, align 8
  %.addr = alloca ptr, align 8
  store ptr %this, ptr %this.addr, align 8
  store ptr %0, ptr %.addr, align 8
  ret void
}

; Function Attrs: mustprogress nounwind uwtable
define linkonce_odr void @_ZN6google17LogMessageVoidifyC2Ev(ptr noundef nonnull align 1 dereferenceable(1) %this) unnamed_addr #4 comdat align 2 {
entry:
  %this.addr = alloca ptr, align 8
  store ptr %this, ptr %this.addr, align 8
  ret void
}

; Function Attrs: mustprogress uwtable
define noundef zeroext i1 @_ZN8proxygen15RateLimitFilter35incrementNumEventsInCurrentIntervalEv(ptr noundef nonnull align 8 dereferenceable(168) %this) unnamed_addr #5 align 2 personality ptr @__gxx_personality_v0 {
entry:
  %this.addr = alloca ptr, align 8
  %ref.tmp = alloca %"class.google::LogMessageVoidify", align 1
  %ref.tmp2 = alloca %"class.google::LogMessageFatal", align 8
  %cleanup.cond = alloca i1, align 1
  %exn.slot = alloca ptr, align 8
  %ehselector.slot = alloca i32, align 4
  %agg.tmp = alloca %"class.std::chrono::duration.34", align 8
  %rateLimitExceeded = alloca i8, align 1
  store ptr %this, ptr %this.addr, align 8
  %this1 = load ptr, ptr %this.addr, align 8
  %numEventsInCurrentInterval_ = getelementptr inbounds %"class.proxygen::RateLimitFilter", ptr %this1, i32 0, i32 2
  %0 = load i32, ptr %numEventsInCurrentInterval_, align 8
  %cmp = icmp eq i32 %0, 0
  br i1 %cmp, label %if.then, label %if.end

if.then:                                          ; preds = %entry
  %timer_ = getelementptr inbounds %"class.proxygen::RateLimitFilter", ptr %this1, i32 0, i32 5
  %1 = load ptr, ptr %timer_, align 8
  %tobool = icmp ne ptr %1, null
  %lnot = xor i1 %tobool, true
  store i1 false, ptr %cleanup.cond, align 1
  br i1 %lnot, label %cond.false, label %cond.true

cond.true:                                        ; preds = %if.then
  br label %cond.end

cond.false:                                       ; preds = %if.then
  call void @_ZN6google17LogMessageVoidifyC2Ev(ptr noundef nonnull align 1 dereferenceable(1) %ref.tmp)
  call void @_ZN6google15LogMessageFatalC1EPKci(ptr noundef nonnull align 8 dereferenceable(96) %ref.tmp2, ptr noundef @.str.5, i32 noundef 54)
  store i1 true, ptr %cleanup.cond, align 1
  %call = invoke noundef nonnull align 8 dereferenceable(8) ptr @_ZN6google10LogMessage6streamEv(ptr noundef nonnull align 8 dereferenceable(96) %ref.tmp2)
          to label %invoke.cont unwind label %lpad

invoke.cont:                                      ; preds = %cond.false
  %call4 = invoke noundef nonnull align 8 dereferenceable(8) ptr @_ZStlsISt11char_traitsIcEERSt13basic_ostreamIcT_ES5_PKc(ptr noundef nonnull align 8 dereferenceable(8) %call, ptr noundef @.str.6)
          to label %invoke.cont3 unwind label %lpad

invoke.cont3:                                     ; preds = %invoke.cont
  invoke void @_ZN6google17LogMessageVoidifyanERSo(ptr noundef nonnull align 1 dereferenceable(1) %ref.tmp, ptr noundef nonnull align 8 dereferenceable(8) %call4)
          to label %invoke.cont5 unwind label %lpad

invoke.cont5:                                     ; preds = %invoke.cont3
  br label %cond.end

cond.end:                                         ; preds = %invoke.cont5, %cond.true
  %cleanup.is_active = load i1, ptr %cleanup.cond, align 1
  br i1 %cleanup.is_active, label %cleanup.action, label %cleanup.done

cleanup.action:                                   ; preds = %cond.end
  call void @_ZN6google15LogMessageFatalD1Ev(ptr noundef nonnull align 8 dereferenceable(96) %ref.tmp2) #15
  unreachable

lpad:                                             ; preds = %invoke.cont3, %invoke.cont, %cond.false
  %2 = landingpad { ptr, i32 }
          cleanup
  %3 = extractvalue { ptr, i32 } %2, 0
  store ptr %3, ptr %exn.slot, align 8
  %4 = extractvalue { ptr, i32 } %2, 1
  store i32 %4, ptr %ehselector.slot, align 4
  %cleanup.is_active6 = load i1, ptr %cleanup.cond, align 1
  br i1 %cleanup.is_active6, label %cleanup.action7, label %cleanup.done8

5:                                                ; No predecessors!
  br label %cleanup.done

cleanup.done:                                     ; preds = %5, %cond.end
  %timer_9 = getelementptr inbounds %"class.proxygen::RateLimitFilter", ptr %this1, i32 0, i32 5
  %6 = load ptr, ptr %timer_9, align 8
  %add.ptr = getelementptr inbounds i8, ptr %this1, i64 72
  %timeoutDuration_ = getelementptr inbounds %"class.proxygen::RateLimitFilter", ptr %this1, i32 0, i32 4
  call void @llvm.memcpy.p0.p0.i64(ptr align 8 %agg.tmp, ptr align 8 %timeoutDuration_, i64 8, i1 false)
  %coerce.dive = getelementptr inbounds %"class.std::chrono::duration.34", ptr %agg.tmp, i32 0, i32 0
  %7 = load i64, ptr %coerce.dive, align 8
  call void @_ZN5folly16HHWheelTimerBaseINSt6chrono8durationIlSt5ratioILl1ELl1000EEEEE15scheduleTimeoutEPNS6_8CallbackES5_(ptr noundef nonnull align 8 dereferenceable(16704) %6, ptr noundef %add.ptr, i64 %7)
  br label %if.end

cleanup.action7:                                  ; preds = %lpad
  call void @_ZN6google15LogMessageFatalD1Ev(ptr noundef nonnull align 8 dereferenceable(96) %ref.tmp2) #15
  unreachable

8:                                                ; No predecessors!
  br label %cleanup.done8

cleanup.done8:                                    ; preds = %8, %lpad
  br label %eh.resume

if.end:                                           ; preds = %cleanup.done, %entry
  %numEventsInCurrentInterval_10 = getelementptr inbounds %"class.proxygen::RateLimitFilter", ptr %this1, i32 0, i32 2
  %9 = load i32, ptr %numEventsInCurrentInterval_10, align 8
  %inc = add i32 %9, 1
  store i32 %inc, ptr %numEventsInCurrentInterval_10, align 8
  %numEventsInCurrentInterval_11 = getelementptr inbounds %"class.proxygen::RateLimitFilter", ptr %this1, i32 0, i32 2
  %10 = load i32, ptr %numEventsInCurrentInterval_11, align 8
  %maxEventsInInterval_ = getelementptr inbounds %"class.proxygen::RateLimitFilter", ptr %this1, i32 0, i32 3
  %11 = load i32, ptr %maxEventsInInterval_, align 4
  %cmp12 = icmp ugt i32 %10, %11
  %frombool = zext i1 %cmp12 to i8
  store i8 %frombool, ptr %rateLimitExceeded, align 1
  %12 = load i8, ptr %rateLimitExceeded, align 1
  %tobool13 = trunc i8 %12 to i1
  br i1 %tobool13, label %if.then14, label %if.end15

if.then14:                                        ; preds = %if.end
  %vtable = load ptr, ptr %this1, align 8
  %vfn = getelementptr inbounds ptr, ptr %vtable, i64 83
  %13 = load ptr, ptr %vfn, align 8
  call void %13(ptr noundef nonnull align 8 dereferenceable(168) %this1)
  br label %if.end15

if.end15:                                         ; preds = %if.then14, %if.end
  %14 = load i8, ptr %rateLimitExceeded, align 1
  %tobool16 = trunc i8 %14 to i1
  ret i1 %tobool16

eh.resume:                                        ; preds = %cleanup.done8
  %exn = load ptr, ptr %exn.slot, align 8
  %sel = load i32, ptr %ehselector.slot, align 4
  %lpad.val = insertvalue { ptr, i32 } poison, ptr %exn, 0
  %lpad.val17 = insertvalue { ptr, i32 } %lpad.val, i32 %sel, 1
  resume { ptr, i32 } %lpad.val17
}