; Function Attrs: mustprogress uwtable
define noundef zeroext i1 @_ZN8proxygen15RateLimitFilter35incrementNumEventsInCurrentIntervalEv(ptr noundef nonnull align 8 dereferenceable(168) %this) unnamed_addr #4 align 2 personality ptr @__gxx_personality_v0 {
entry:
  %ref.tmp2 = alloca %"class.google::LogMessageFatal", align 8
  %numEventsInCurrentInterval_ = getelementptr inbounds i8, ptr %this, i64 136
  %0 = load i32, ptr %numEventsInCurrentInterval_, align 8
  %cmp = icmp eq i32 %0, 0
  br i1 %cmp, label %if.then, label %if.end

if.then:                                          ; preds = %entry
  %timer_ = getelementptr inbounds i8, ptr %this, i64 152
  %1 = load ptr, ptr %timer_, align 8
  %tobool.not = icmp eq ptr %1, null
  br i1 %tobool.not, label %cond.false, label %cleanup.done

cond.false:                                       ; preds = %if.then
  call void @_ZN6google15LogMessageFatalC1EPKci(ptr noundef nonnull align 8 dereferenceable(96) %ref.tmp2, ptr noundef nonnull @.str.5, i32 noundef 54)
  %call = invoke noundef nonnull align 8 dereferenceable(8) ptr @_ZN6google10LogMessage6streamEv(ptr noundef nonnull align 8 dereferenceable(96) %ref.tmp2)
          to label %invoke.cont unwind label %lpad

invoke.cont:                                      ; preds = %cond.false
  %call4 = invoke noundef nonnull align 8 dereferenceable(8) ptr @_ZStlsISt11char_traitsIcEERSt13basic_ostreamIcT_ES5_PKc(ptr noundef nonnull align 8 dereferenceable(8) %call, ptr noundef nonnull @.str.6)
          to label %cleanup.action unwind label %lpad

cleanup.action:                                   ; preds = %invoke.cont
  call void @_ZN6google15LogMessageFatalD1Ev(ptr noundef nonnull align 8 dereferenceable(96) %ref.tmp2) #22
  unreachable

lpad:                                             ; preds = %invoke.cont, %cond.false
  %2 = landingpad { ptr, i32 }
          cleanup
  call void @_ZN6google15LogMessageFatalD1Ev(ptr noundef nonnull align 8 dereferenceable(96) %ref.tmp2) #22
  unreachable

cleanup.done:                                     ; preds = %if.then
  %add.ptr = getelementptr inbounds i8, ptr %this, i64 72
  %timeoutDuration_ = getelementptr inbounds i8, ptr %this, i64 144
  %agg.tmp.sroa.0.0.copyload = load i64, ptr %timeoutDuration_, align 8
  tail call void @_ZN5folly16HHWheelTimerBaseINSt6chrono8durationIlSt5ratioILl1ELl1000EEEEE15scheduleTimeoutEPNS6_8CallbackES5_(ptr noundef nonnull align 8 dereferenceable(16704) %1, ptr noundef nonnull %add.ptr, i64 %agg.tmp.sroa.0.0.copyload)
  %.pre = load i32, ptr %numEventsInCurrentInterval_, align 8
  br label %if.end

if.end:                                           ; preds = %cleanup.done, %entry
  %3 = phi i32 [ %.pre, %cleanup.done ], [ %0, %entry ]
  %inc = add i32 %3, 1
  store i32 %inc, ptr %numEventsInCurrentInterval_, align 8
  %maxEventsInInterval_ = getelementptr inbounds i8, ptr %this, i64 140
  %4 = load i32, ptr %maxEventsInInterval_, align 4
  %cmp12 = icmp ugt i32 %inc, %4
  br i1 %cmp12, label %if.then14, label %if.end15

if.then14:                                        ; preds = %if.end
  %vtable = load ptr, ptr %this, align 8
  %vfn = getelementptr inbounds i8, ptr %vtable, i64 664
  %5 = load ptr, ptr %vfn, align 8
  tail call void %5(ptr noundef nonnull align 8 dereferenceable(168) %this)
  br label %if.end15

if.end15:                                         ; preds = %if.then14, %if.end
  ret i1 %cmp12
}